Certificate:
    Data:
        Version: 3 (0x2)
        Serial Number: 12 (0xc)
        Signature Algorithm: sha384WithRSAEncryption
        Issuer: C=US, ST=OR, L=Beaverton, O=COMP_OEM1, CN=COMP_OEM1 rsa 3k sha384 test ca2
        Validity
            Not Before: Nov 15 13:50:41 2023 GMT
            Not After : Nov 12 13:50:41 2033 GMT
        Subject: C=US, ST=OR, L=Beaverton, O=COMP_OEM1, CN=COMP_OEM1 rsa 3k sha384 test signer
        Subject Public Key Info:
            Public Key Algorithm: rsaEncryption
                RSA Public-Key: (3072 bit)
                Modulus:
                    00:a2:6d:e9:c8:e6:2d:0e:c6:aa:a7:0f:31:7e:aa:
                    a8:16:be:ce:cb:b0:01:b3:4c:eb:50:cc:b3:28:ab:
                    df:ad:8f:c9:0c:45:05:c3:2f:ea:d5:fd:da:8b:96:
                    3f:e1:87:73:9e:a4:65:2f:68:bc:10:7d:03:5c:fa:
                    83:a9:63:83:41:b6:0f:03:87:e1:07:e4:0f:66:be:
                    ac:a9:b2:38:1c:90:79:f2:53:f8:b5:9d:a1:6c:9b:
                    c3:e3:50:48:17:09:1d:9d:6d:08:82:dc:04:02:f9:
                    5e:2f:b7:17:4c:dd:21:f7:7d:7b:a3:eb:49:67:17:
                    ae:32:74:65:6a:60:1c:5b:7f:45:4a:e6:89:85:36:
                    dc:3a:9d:20:60:1c:c1:30:ff:20:58:ce:98:76:28:
                    ee:02:5f:04:e5:6e:c9:3d:3f:8c:af:5d:80:40:cd:
                    1f:a2:60:aa:af:45:66:c1:fa:ac:11:80:bb:53:ad:
                    e0:31:6d:da:06:d6:61:df:b8:cb:77:1f:9d:ce:0f:
                    b9:e7:0c:5d:ba:c2:c2:da:09:4f:a5:e0:d4:7e:ca:
                    c3:5a:3a:e9:6d:3d:6a:8e:91:d7:a5:93:57:c8:ca:
                    02:75:91:d7:3a:7c:cc:58:6e:2a:10:42:12:f3:89:
                    bd:57:9b:2a:4d:97:48:07:d2:1a:a2:c4:c0:b3:ef:
                    aa:ab:30:58:96:22:46:e9:3f:b4:2d:52:72:a0:ff:
                    98:63:58:92:84:20:11:7c:54:e7:5c:86:c8:25:06:
                    b6:f7:f2:0b:6a:34:c9:ad:7a:0c:9f:cd:e0:3e:63:
                    23:c5:c3:e5:cb:d1:73:8f:c4:8d:b2:cc:51:44:b7:
                    b0:8f:dd:78:3c:95:0e:57:e6:7b:cd:91:0a:d7:3b:
                    6d:1b:52:55:e1:4d:89:8b:b6:2f:fe:0c:77:e1:cf:
                    6a:5b:6f:1f:c8:34:f4:1c:24:e2:9b:f5:76:a6:73:
                    9c:d8:1d:7a:25:82:80:8c:4a:5e:7e:eb:13:35:0d:
                    1b:91:de:fc:7a:fc:dc:f0:d4:95
                Exponent: 65537 (0x10001)
        X509v3 extensions:
            X509v3 Subject Key Identifier: 
                92:E7:E4:0C:6D:76:96:BA:3E:91:DC:39:67:15:93:76:1C:DA:21:FD
            X509v3 Authority Key Identifier: 
                keyid:C3:93:E7:71:1C:39:09:4C:FA:A3:87:8C:42:97:12:B2:5C:AC:4D:04

            X509v3 Basic Constraints: critical
                CA:TRUE
            X509v3 Key Usage: critical
                Digital Signature, Certificate Sign, CRL Sign
            Authority Information Access: 
                CA Issuers - URI:https://example.com/certs

            X509v3 CRL Distribution Points: 

                Full Name:
                  URI:https://example.com/crl

    Signature Algorithm: sha384WithRSAEncryption
         7c:19:47:48:a1:b1:42:ff:37:db:9a:3b:b6:a2:e7:a5:be:aa:
         d5:7f:7e:13:4c:4d:03:13:e7:ab:be:80:e8:68:70:95:4f:b7:
         9f:28:ce:36:eb:3a:5d:11:25:9a:07:95:db:03:1a:13:26:5e:
         76:b8:cc:f4:22:41:91:c7:00:da:7b:45:4e:ef:b6:20:35:83:
         b0:71:30:4c:86:2e:de:b9:34:2c:d3:2a:e4:e2:44:ec:a3:9d:
         59:ad:47:8a:b8:a8:d5:4d:b0:49:6a:cc:0b:08:07:77:07:b7:
         38:4f:e1:4a:fe:b8:4b:74:71:22:a8:0e:35:f9:94:a6:58:09:
         e4:89:f0:11:06:95:98:2b:56:bd:1e:d1:ad:c1:ab:3a:98:fa:
         41:2d:73:bd:ce:b4:3c:47:b8:ec:07:5e:96:44:e0:09:97:00:
         9d:76:83:7f:1b:5b:f1:c4:86:76:e4:d2:60:1a:15:eb:13:d8:
         95:39:89:0e:e1:32:2e:60:cc:da:2f:52:f1:2d:cd:ef:33:1b:
         5c:e9:66:45:b8:cc:fe:95:2c:32:44:88:1d:23:53:b6:f5:8d:
         93:d6:0c:a9:5b:33:28:cf:1f:b2:b9:af:69:ad:b0:b7:f9:b6:
         f9:34:b5:64:9c:56:a6:5b:d4:eb:9f:6f:90:c6:81:35:2e:ab:
         b1:a1:be:c3:92:e8:53:cd:c0:e9:d8:5a:5e:0b:ee:8c:0b:91:
         e7:b2:fc:18:e3:28:51:66:27:e6:26:56:ab:f5:fd:ca:f7:ea:
         d1:64:7e:33:70:ef:10:8b:88:ff:3a:d3:fa:80:93:90:49:4a:
         96:a2:77:39:9a:20:92:a2:e9:90:c5:c6:68:5e:8f:0a:92:85:
         6e:d7:16:8a:e5:4b:a4:06:ef:0b:04:8d:55:ef:a9:1f:7c:1f:
         36:17:1a:a4:65:09:59:ca:2d:99:8d:91:52:42:2d:8a:54:0e:
         1c:61:54:65:9d:aa:57:fc:14:7d:1b:4a:4a:30:61:da:b3:83:
         f2:b9:99:02:31:18
-----BEGIN CERTIFICATE-----
MIIFHjCCA4agAwIBAgIBDDANBgkqhkiG9w0BAQwFADBtMQswCQYDVQQGEwJVUzEL
MAkGA1UECAwCT1IxEjAQBgNVBAcMCUJlYXZlcnRvbjESMBAGA1UECgwJQ09NUF9P
RU0xMSkwJwYDVQQDDCBDT01QX09FTTEgcnNhIDNrIHNoYTM4NCB0ZXN0IGNhMjAe
Fw0yMzExMTUxMzUwNDFaFw0zMzExMTIxMzUwNDFaMHAxCzAJBgNVBAYTAlVTMQsw
CQYDVQQIDAJPUjESMBAGA1UEBwwJQmVhdmVydG9uMRIwEAYDVQQKDAlDT01QX09F
TTExLDAqBgNVBAMMI0NPTVBfT0VNMSByc2EgM2sgc2hhMzg0IHRlc3Qgc2lnbmVy
MIIBojANBgkqhkiG9w0BAQEFAAOCAY8AMIIBigKCAYEAom3pyOYtDsaqpw8xfqqo
Fr7Oy7ABs0zrUMyzKKvfrY/JDEUFwy/q1f3ai5Y/4YdznqRlL2i8EH0DXPqDqWOD
QbYPA4fhB+QPZr6sqbI4HJB58lP4tZ2hbJvD41BIFwkdnW0IgtwEAvleL7cXTN0h
9317o+tJZxeuMnRlamAcW39FSuaJhTbcOp0gYBzBMP8gWM6YdijuAl8E5W7JPT+M
r12AQM0fomCqr0VmwfqsEYC7U63gMW3aBtZh37jLdx+dzg+55wxdusLC2glPpeDU
fsrDWjrpbT1qjpHXpZNXyMoCdZHXOnzMWG4qEEIS84m9V5sqTZdIB9IaosTAs++q
qzBYliJG6T+0LVJyoP+YY1iShCARfFTnXIbIJQa29/ILajTJrXoMn83gPmMjxcPl
y9Fzj8SNssxRRLewj914PJUOV+Z7zZEK1zttG1JV4U2Ji7Yv/gx34c9qW28fyDT0
HCTim/V2pnOc2B16JYKAjEpefusTNQ0bkd78evzc8NSVAgMBAAGjgcUwgcIwHQYD
VR0OBBYEFJLn5Axtdpa6PpHcOWcVk3Yc2iH9MB8GA1UdIwQYMBaAFMOT53EcOQlM
+qOHjEKXErJcrE0EMA8GA1UdEwEB/wQFMAMBAf8wDgYDVR0PAQH/BAQDAgGGMDUG
CCsGAQUFBwEBBCkwJzAlBggrBgEFBQcwAoYZaHR0cHM6Ly9leGFtcGxlLmNvbS9j
ZXJ0czAoBgNVHR8EITAfMB2gG6AZhhdodHRwczovL2V4YW1wbGUuY29tL2NybDAN
BgkqhkiG9w0BAQwFAAOCAYEAfBlHSKGxQv8325o7tqLnpb6q1X9+E0xNAxPnq76A
6GhwlU+3nyjONus6XRElmgeV2wMaEyZedrjM9CJBkccA2ntFTu+2IDWDsHEwTIYu
3rk0LNMq5OJE7KOdWa1Hirio1U2wSWrMCwgHdwe3OE/hSv64S3RxIqgONfmUplgJ
5InwEQaVmCtWvR7RrcGrOpj6QS1zvc60PEe47AdelkTgCZcAnXaDfxtb8cSGduTS
YBoV6xPYlTmJDuEyLmDM2i9S8S3N7zMbXOlmRbjM/pUsMkSIHSNTtvWNk9YMqVsz
KM8fsrmvaa2wt/m2+TS1ZJxWplvU659vkMaBNS6rsaG+w5LoU83A6dhaXgvujAuR
57L8GOMoUWYn5iZWq/X9yvfq0WR+M3DvEIuI/zrT+oCTkElKlqJ3OZogkqLpkMXG
aF6PCpKFbtcWiuVLpAbvCwSNVe+pH3wfNhcapGUJWcotmY2RUkItilQOHGFUZZ2q
V/wUfRtKSjBh2rOD8rmZAjEY
-----END CERTIFICATE-----
