Certificate:
    Data:
        Version: 3 (0x2)
        Serial Number: 9 (0x9)
        Signature Algorithm: sha384WithRSAEncryption
        Issuer: C=US, ST=OR, L=Beaverton, O=COMP_OEM1, CN=COMP_OEM1 rsa 3k sha384 test intermediate ca
        Validity
            Not Before: Nov 15 13:50:39 2023 GMT
            Not After : Nov 12 13:50:39 2033 GMT
        Subject: C=US, ST=OR, L=Beaverton, O=COMP_OEM1, CN=COMP_OEM1 rsa 3k sha384 test ca1
        Subject Public Key Info:
            Public Key Algorithm: rsaEncryption
                RSA Public-Key: (3072 bit)
                Modulus:
                    00:d5:fd:b0:c5:55:03:5b:45:c5:bc:f2:e2:90:92:
                    64:82:12:1a:ec:3b:3b:3d:c8:95:72:f6:6f:5d:1c:
                    45:e3:5b:d2:b0:de:78:a7:be:56:df:4f:7c:04:be:
                    92:77:4f:60:fb:89:5a:4f:ac:67:9f:b7:34:8c:a2:
                    00:1c:1e:2c:69:48:06:ea:78:a4:c2:65:0a:5f:fe:
                    2a:e9:aa:f2:7a:58:1b:fc:65:4e:0a:37:aa:70:4a:
                    2f:03:6b:de:78:54:56:6c:4a:e6:44:b9:4d:92:0a:
                    39:4f:9d:6b:2b:8a:6b:f6:bb:08:6e:45:c4:2a:aa:
                    ed:2f:18:b3:de:2c:48:54:8f:ff:86:2d:15:0d:17:
                    30:ab:cb:71:26:bf:98:dd:d7:c6:b1:1d:15:a7:d0:
                    da:58:00:34:56:1a:f7:a9:d3:63:b1:51:11:48:24:
                    76:8e:19:0d:c8:4f:38:f1:a9:64:67:c7:9d:d0:79:
                    1d:24:5b:ca:d2:6e:ad:39:76:36:48:2c:c5:b7:e6:
                    bb:31:a7:6b:d1:8c:5e:b9:a6:64:93:83:e9:b2:d0:
                    d3:60:a5:cf:44:b1:ed:f1:2c:13:9f:df:0b:d8:0e:
                    d1:b6:5f:5d:44:fd:da:c1:b6:a4:d0:76:43:b8:15:
                    ea:7b:2b:85:ec:48:57:07:d2:e2:49:09:72:89:c8:
                    7e:a2:8d:df:6b:c6:95:45:8e:28:bd:f7:ae:f4:96:
                    ac:37:8d:2e:74:a4:5e:42:ce:61:2d:6a:50:dd:38:
                    7d:3c:19:94:49:15:b0:f5:55:df:06:08:95:3a:b3:
                    ca:68:e7:bc:d3:ae:77:ac:a4:24:d5:ff:33:d0:20:
                    42:cd:df:74:75:d9:a3:c2:f6:56:b6:19:de:15:73:
                    95:cc:c0:66:e4:99:64:7c:c3:1e:1b:93:c7:f4:c3:
                    f3:a9:5e:a6:ee:36:98:4c:3b:76:2f:f5:92:8a:80:
                    19:78:a6:cc:c1:4b:f8:56:a8:94:01:60:0f:cd:ac:
                    8d:62:c5:88:e5:d3:68:89:4b:6d
                Exponent: 65537 (0x10001)
        X509v3 extensions:
            X509v3 Subject Key Identifier: 
                27:0D:A0:26:B2:FC:56:84:8B:3A:BE:AA:DB:FB:54:51:56:33:B9:D1
            X509v3 Authority Key Identifier: 
                keyid:2E:5B:BD:AE:58:B0:F5:47:0F:F0:46:45:E2:D6:B2:5E:B5:3B:90:38

            X509v3 Basic Constraints: critical
                CA:TRUE
            X509v3 Key Usage: critical
                Digital Signature, Certificate Sign, CRL Sign
            Authority Information Access: 
                CA Issuers - URI:https://example.com/certs

            X509v3 CRL Distribution Points: 

                Full Name:
                  URI:https://example.com/crl

    Signature Algorithm: sha384WithRSAEncryption
         85:1a:d7:6e:94:6f:86:2d:22:7f:ab:24:df:ac:d8:d0:50:54:
         49:6a:0b:ad:ec:fa:ee:48:3b:f3:08:d3:62:6f:57:be:e0:73:
         53:dc:17:b0:57:85:32:84:15:2c:20:2f:f2:9b:b4:78:18:ca:
         99:ec:b2:47:c3:d9:53:c1:b2:0d:ad:cd:87:ef:aa:e7:6b:69:
         3a:f1:c5:ee:f1:f8:e4:a6:d2:28:60:37:76:cc:02:54:b8:a1:
         12:69:e8:f7:b7:13:c8:bf:14:55:88:ae:d1:66:d7:24:c0:b8:
         3a:c0:32:8b:24:e8:46:dc:6b:0c:70:e1:9c:da:e0:78:e1:f6:
         62:08:72:8d:85:35:aa:c5:87:01:b8:21:6b:6c:67:cf:01:39:
         1f:6e:47:fc:95:cc:dc:c8:8e:7b:ce:42:af:5a:1f:ff:a3:c0:
         ef:b1:53:c3:04:9f:7e:e5:32:a1:d2:b0:28:54:82:41:91:64:
         30:b0:25:70:bc:4c:72:57:d6:a7:43:28:97:91:21:ff:ed:28:
         21:30:a7:86:a7:ab:9a:df:63:7a:54:00:78:fd:0b:b3:62:7c:
         f5:f9:b5:a2:e4:10:88:72:a0:97:bc:f7:08:45:e1:18:69:5f:
         8f:43:b8:19:c6:2c:82:01:f1:2e:60:3a:66:27:7b:55:d4:60:
         c1:45:ea:1e:7f:cd:da:48:e7:c3:00:52:a3:0f:70:77:fc:2f:
         81:e0:65:09:8e:00:e2:28:a7:e4:f5:7b:92:4f:c5:f6:dd:49:
         cf:c0:de:ab:08:7b:fb:f8:4a:4a:49:25:ef:6b:58:2e:32:88:
         18:9a:4f:1f:9e:de:11:d6:cf:4c:3e:da:73:e8:25:44:09:9c:
         84:92:03:e8:3d:63:84:24:f4:dd:9b:0e:1d:84:30:d2:bd:43:
         43:5a:0e:2c:db:94:bb:20:f2:0b:1d:33:85:4a:22:e3:ec:3d:
         2c:64:d8:d2:b9:b2:5d:df:08:e7:fe:ac:a2:c9:ea:7c:fd:52:
         55:43:5e:2b:08:11
-----BEGIN CERTIFICATE-----
MIIFJzCCA4+gAwIBAgIBCTANBgkqhkiG9w0BAQwFADB5MQswCQYDVQQGEwJVUzEL
MAkGA1UECAwCT1IxEjAQBgNVBAcMCUJlYXZlcnRvbjESMBAGA1UECgwJQ09NUF9P
RU0xMTUwMwYDVQQDDCxDT01QX09FTTEgcnNhIDNrIHNoYTM4NCB0ZXN0IGludGVy
bWVkaWF0ZSBjYTAeFw0yMzExMTUxMzUwMzlaFw0zMzExMTIxMzUwMzlaMG0xCzAJ
BgNVBAYTAlVTMQswCQYDVQQIDAJPUjESMBAGA1UEBwwJQmVhdmVydG9uMRIwEAYD
VQQKDAlDT01QX09FTTExKTAnBgNVBAMMIENPTVBfT0VNMSByc2EgM2sgc2hhMzg0
IHRlc3QgY2ExMIIBojANBgkqhkiG9w0BAQEFAAOCAY8AMIIBigKCAYEA1f2wxVUD
W0XFvPLikJJkghIa7Ds7PciVcvZvXRxF41vSsN54p75W3098BL6Sd09g+4laT6xn
n7c0jKIAHB4saUgG6nikwmUKX/4q6aryelgb/GVOCjeqcEovA2veeFRWbErmRLlN
kgo5T51rK4pr9rsIbkXEKqrtLxiz3ixIVI//hi0VDRcwq8txJr+Y3dfGsR0Vp9Da
WAA0Vhr3qdNjsVERSCR2jhkNyE848alkZ8ed0HkdJFvK0m6tOXY2SCzFt+a7Madr
0YxeuaZkk4PpstDTYKXPRLHt8SwTn98L2A7Rtl9dRP3awbak0HZDuBXqeyuF7EhX
B9LiSQlyich+oo3fa8aVRY4ovfeu9JasN40udKReQs5hLWpQ3Th9PBmUSRWw9VXf
BgiVOrPKaOe80653rKQk1f8z0CBCzd90ddmjwvZWthneFXOVzMBm5JlkfMMeG5PH
9MPzqV6m7jaYTDt2L/WSioAZeKbMwUv4VqiUAWAPzayNYsWI5dNoiUttAgMBAAGj
gcUwgcIwHQYDVR0OBBYEFCcNoCay/FaEizq+qtv7VFFWM7nRMB8GA1UdIwQYMBaA
FC5bva5YsPVHD/BGReLWsl61O5A4MA8GA1UdEwEB/wQFMAMBAf8wDgYDVR0PAQH/
BAQDAgGGMDUGCCsGAQUFBwEBBCkwJzAlBggrBgEFBQcwAoYZaHR0cHM6Ly9leGFt
cGxlLmNvbS9jZXJ0czAoBgNVHR8EITAfMB2gG6AZhhdodHRwczovL2V4YW1wbGUu
Y29tL2NybDANBgkqhkiG9w0BAQwFAAOCAYEAhRrXbpRvhi0if6sk36zY0FBUSWoL
rez67kg78wjTYm9XvuBzU9wXsFeFMoQVLCAv8pu0eBjKmeyyR8PZU8GyDa3Nh++q
52tpOvHF7vH45KbSKGA3dswCVLihEmno97cTyL8UVYiu0WbXJMC4OsAyiyToRtxr
DHDhnNrgeOH2YghyjYU1qsWHAbgha2xnzwE5H25H/JXM3MiOe85Cr1of/6PA77FT
wwSffuUyodKwKFSCQZFkMLAlcLxMclfWp0Mol5Eh/+0oITCnhqermt9jelQAeP0L
s2J89fm1ouQQiHKgl7z3CEXhGGlfj0O4GcYsggHxLmA6Zid7VdRgwUXqHn/N2kjn
wwBSow9wd/wvgeBlCY4A4iin5PV7kk/F9t1Jz8Deqwh7+/hKSkkl72tYLjKIGJpP
H57eEdbPTD7ac+glRAmchJID6D1jhCT03ZsOHYQw0r1DQ1oOLNuUuyDyCx0zhUoi
4+w9LGTY0rmyXd8I5/6sosnqfP1SVUNeKwgR
-----END CERTIFICATE-----
Certificate:
    Data:
        Version: 3 (0x2)
        Serial Number: 10 (0xa)
        Signature Algorithm: sha384WithRSAEncryption
        Issuer: C=US, ST=OR, L=Beaverton, O=COMP_OEM1, CN=COMP_OEM1 rsa 3k sha384 test intermediate ca
        Validity
            Not Before: Nov 15 13:50:40 2023 GMT
            Not After : Nov 12 13:50:40 2033 GMT
        Subject: C=US, ST=OR, L=Beaverton, O=COMP_OEM1, CN=COMP_OEM1 rsa 3k sha384 test ca2
        Subject Public Key Info:
            Public Key Algorithm: rsaEncryption
                RSA Public-Key: (3072 bit)
                Modulus:
                    00:b0:b5:00:39:7c:bd:bb:10:ac:d0:e6:c2:33:15:
                    c9:cc:c5:08:36:7c:33:23:f8:68:6c:bc:32:5b:3b:
                    30:9c:34:e1:30:d1:b4:0e:07:66:07:9a:c2:5e:45:
                    ed:9e:33:eb:2a:7c:4e:86:1e:7f:7e:3b:76:dd:a4:
                    9b:65:fb:ee:ab:0e:15:23:37:12:63:87:0b:22:00:
                    2c:67:fb:ba:6f:53:6e:02:4c:2f:5e:94:9d:b1:63:
                    3a:3a:57:24:35:6b:75:71:55:76:9b:ca:38:a6:3b:
                    12:52:04:18:f9:9b:88:b8:5f:f3:81:ff:59:3c:a5:
                    f2:52:50:ee:89:75:1d:64:8b:0b:b4:47:26:61:3f:
                    e9:95:08:67:78:6e:f0:17:c9:11:66:f3:63:79:f9:
                    cd:c4:53:83:63:cd:40:3f:22:ed:7e:52:9f:ce:e1:
                    89:5e:b0:92:0b:e1:00:b5:bd:cc:cb:9f:69:d0:e9:
                    a2:a8:03:c3:85:c8:89:65:9c:c9:c6:23:8d:90:19:
                    7f:29:08:d8:bd:dd:f6:ed:6c:ea:4e:c0:46:53:00:
                    ba:fd:09:d3:5a:e9:45:d4:b7:71:3e:30:90:12:b4:
                    23:e9:9d:16:15:d3:ca:62:7f:bb:df:1a:cd:94:8c:
                    18:b4:19:61:af:df:76:7b:4d:bd:34:18:cc:ba:0e:
                    50:9b:81:0d:2c:2e:9c:74:91:93:16:ea:7a:fe:2d:
                    27:87:2e:e2:d2:82:df:da:f4:ab:2e:02:6d:42:f6:
                    4b:3b:57:d5:d3:43:d7:14:98:18:a1:ce:a6:3e:3e:
                    8c:4a:b9:d6:f1:cb:0f:39:71:c6:93:46:45:c9:37:
                    e8:5b:9d:4d:46:8f:eb:67:9b:2f:f5:77:76:0c:ca:
                    65:63:bd:e8:27:27:76:05:87:68:d9:b9:2b:81:f7:
                    24:d6:9c:71:8c:c3:20:15:86:ca:42:1a:c6:f2:54:
                    70:c7:65:b5:8d:49:88:3e:fd:23:51:f4:9d:ec:80:
                    14:9b:de:fe:9d:7d:c3:6d:35:41
                Exponent: 65537 (0x10001)
        X509v3 extensions:
            X509v3 Subject Key Identifier: 
                C3:93:E7:71:1C:39:09:4C:FA:A3:87:8C:42:97:12:B2:5C:AC:4D:04
            X509v3 Authority Key Identifier: 
                keyid:2E:5B:BD:AE:58:B0:F5:47:0F:F0:46:45:E2:D6:B2:5E:B5:3B:90:38

            X509v3 Basic Constraints: critical
                CA:TRUE
            X509v3 Key Usage: critical
                Digital Signature, Certificate Sign, CRL Sign
            Authority Information Access: 
                CA Issuers - URI:https://example.com/certs

            X509v3 CRL Distribution Points: 

                Full Name:
                  URI:https://example.com/crl

    Signature Algorithm: sha384WithRSAEncryption
         69:75:a6:a3:e2:55:ac:f3:a8:30:29:9b:c0:af:d6:bd:6a:34:
         b9:65:89:d9:3f:c3:db:e8:56:35:61:8a:f5:48:be:6f:e2:36:
         d4:f7:42:4d:8c:79:f0:bc:87:4f:e5:b2:bd:26:7f:0a:58:02:
         ae:d4:d5:87:33:d9:f0:35:f3:b4:f7:84:79:90:a0:42:9a:a2:
         c8:7c:6e:bc:74:29:70:96:6f:bc:c2:40:39:63:4e:8c:1a:2a:
         f5:a1:01:39:a5:82:00:56:cb:a6:d8:79:7a:ed:40:dd:d6:e1:
         43:0f:a3:6b:18:e0:a2:4c:57:8a:e6:e2:00:ec:e1:e8:18:1d:
         6b:74:6f:f3:71:c4:d4:4a:43:84:e0:48:13:7f:cf:54:ef:92:
         21:5c:be:62:e0:c7:b0:a7:ef:70:cc:74:64:f0:5e:66:88:05:
         7d:f2:16:7c:75:be:38:c1:a5:29:8e:cb:06:d3:fb:d0:77:a4:
         fd:8f:3e:a0:e6:f6:d0:41:7e:14:84:16:05:17:b3:9c:90:aa:
         ac:fb:50:2d:54:a0:8f:89:b7:fb:e9:14:e7:a4:ae:b3:a3:eb:
         b1:79:67:18:00:bc:73:96:b7:d8:98:f6:82:7c:b9:9d:6f:dc:
         d3:31:cd:bf:55:7a:2f:d0:5d:16:08:85:bb:34:50:d1:a3:a8:
         2d:06:e3:0e:f5:1d:78:22:21:ba:36:21:4f:3d:12:cc:62:00:
         d7:59:32:98:bf:63:62:6c:8a:12:2e:cd:10:d6:4b:2c:26:c3:
         d9:79:ce:f1:a0:f9:90:df:78:f4:22:ae:34:92:fd:18:e4:43:
         a3:c1:ac:58:2e:77:d9:b5:cf:3c:74:d2:e6:c5:82:29:17:a7:
         43:1f:47:f3:35:d5:63:c0:89:bb:0e:27:cc:cd:3c:bd:8b:33:
         ed:e5:75:27:17:12:a9:cb:be:40:87:41:d4:7b:6c:0d:e7:e5:
         24:2c:ad:0d:ad:ad:c8:81:b9:15:7a:ee:3d:38:53:06:7f:d3:
         cc:ea:a4:d5:bb:a9
-----BEGIN CERTIFICATE-----
MIIFJzCCA4+gAwIBAgIBCjANBgkqhkiG9w0BAQwFADB5MQswCQYDVQQGEwJVUzEL
MAkGA1UECAwCT1IxEjAQBgNVBAcMCUJlYXZlcnRvbjESMBAGA1UECgwJQ09NUF9P
RU0xMTUwMwYDVQQDDCxDT01QX09FTTEgcnNhIDNrIHNoYTM4NCB0ZXN0IGludGVy
bWVkaWF0ZSBjYTAeFw0yMzExMTUxMzUwNDBaFw0zMzExMTIxMzUwNDBaMG0xCzAJ
BgNVBAYTAlVTMQswCQYDVQQIDAJPUjESMBAGA1UEBwwJQmVhdmVydG9uMRIwEAYD
VQQKDAlDT01QX09FTTExKTAnBgNVBAMMIENPTVBfT0VNMSByc2EgM2sgc2hhMzg0
IHRlc3QgY2EyMIIBojANBgkqhkiG9w0BAQEFAAOCAY8AMIIBigKCAYEAsLUAOXy9
uxCs0ObCMxXJzMUINnwzI/hobLwyWzswnDThMNG0DgdmB5rCXkXtnjPrKnxOhh5/
fjt23aSbZfvuqw4VIzcSY4cLIgAsZ/u6b1NuAkwvXpSdsWM6OlckNWt1cVV2m8o4
pjsSUgQY+ZuIuF/zgf9ZPKXyUlDuiXUdZIsLtEcmYT/plQhneG7wF8kRZvNjefnN
xFODY81APyLtflKfzuGJXrCSC+EAtb3My59p0OmiqAPDhciJZZzJxiONkBl/KQjY
vd327WzqTsBGUwC6/QnTWulF1LdxPjCQErQj6Z0WFdPKYn+73xrNlIwYtBlhr992
e029NBjMug5Qm4ENLC6cdJGTFup6/i0nhy7i0oLf2vSrLgJtQvZLO1fV00PXFJgY
oc6mPj6MSrnW8csPOXHGk0ZFyTfoW51NRo/rZ5sv9Xd2DMplY73oJyd2BYdo2bkr
gfck1pxxjMMgFYbKQhrG8lRwx2W1jUmIPv0jUfSd7IAUm97+nX3DbTVBAgMBAAGj
gcUwgcIwHQYDVR0OBBYEFMOT53EcOQlM+qOHjEKXErJcrE0EMB8GA1UdIwQYMBaA
FC5bva5YsPVHD/BGReLWsl61O5A4MA8GA1UdEwEB/wQFMAMBAf8wDgYDVR0PAQH/
BAQDAgGGMDUGCCsGAQUFBwEBBCkwJzAlBggrBgEFBQcwAoYZaHR0cHM6Ly9leGFt
cGxlLmNvbS9jZXJ0czAoBgNVHR8EITAfMB2gG6AZhhdodHRwczovL2V4YW1wbGUu
Y29tL2NybDANBgkqhkiG9w0BAQwFAAOCAYEAaXWmo+JVrPOoMCmbwK/WvWo0uWWJ
2T/D2+hWNWGK9Ui+b+I21PdCTYx58LyHT+WyvSZ/ClgCrtTVhzPZ8DXztPeEeZCg
QpqiyHxuvHQpcJZvvMJAOWNOjBoq9aEBOaWCAFbLpth5eu1A3dbhQw+jaxjgokxX
iubiAOzh6Bgda3Rv83HE1EpDhOBIE3/PVO+SIVy+YuDHsKfvcMx0ZPBeZogFffIW
fHW+OMGlKY7LBtP70Hek/Y8+oOb20EF+FIQWBReznJCqrPtQLVSgj4m3++kU56Su
s6PrsXlnGAC8c5a32Jj2gny5nW/c0zHNv1V6L9BdFgiFuzRQ0aOoLQbjDvUdeCIh
ujYhTz0SzGIA11kymL9jYmyKEi7NENZLLCbD2XnO8aD5kN949CKuNJL9GORDo8Gs
WC532bXPPHTS5sWCKRenQx9H8zXVY8CJuw4nzM08vYsz7eV1JxcSqcu+QIdB1Hts
DeflJCytDa2tyIG5FXruPThTBn/TzOqk1bup
-----END CERTIFICATE-----
Certificate:
    Data:
        Version: 3 (0x2)
        Serial Number: 8 (0x8)
        Signature Algorithm: sha384WithRSAEncryption
        Issuer: C=US, ST=OR, L=Beaverton, O=COMP_OEM1, CN=COMP_OEM1 rsa 3k sha384 test root ca
        Validity
            Not Before: Nov 15 13:50:39 2023 GMT
            Not After : Nov 12 13:50:39 2033 GMT
        Subject: C=US, ST=OR, L=Beaverton, O=COMP_OEM1, CN=COMP_OEM1 rsa 3k sha384 test intermediate ca
        Subject Public Key Info:
            Public Key Algorithm: rsaEncryption
                RSA Public-Key: (3072 bit)
                Modulus:
                    00:9a:a2:30:cb:67:f5:41:7e:72:19:6d:c2:4c:dc:
                    b6:3a:78:16:b1:fc:f7:ea:65:06:7b:ce:b1:5f:1b:
                    d6:7d:1a:7e:34:69:d8:a8:aa:60:e0:7f:e4:76:01:
                    45:ba:84:e8:5e:f9:ba:30:3e:a9:eb:56:72:29:47:
                    32:f8:c6:a0:5b:bb:de:3f:69:dc:b0:00:24:dd:8f:
                    c5:eb:d0:8e:0e:47:25:65:c2:c3:7e:d2:53:f1:78:
                    df:74:67:8d:f3:93:03:4e:59:09:51:86:8e:e6:e2:
                    b4:d0:78:dc:28:7a:65:a6:e1:09:e3:cc:1b:fb:bc:
                    0c:11:b3:c8:5f:91:23:85:b0:0e:a6:19:b1:4c:7e:
                    7f:e9:52:88:fc:b1:22:31:2a:0a:2a:14:a9:e4:b0:
                    f8:ad:be:71:ce:b6:4c:0b:f2:dc:93:ff:d1:ad:80:
                    f3:72:b5:41:fa:3a:9d:fa:ea:17:77:a6:c0:64:50:
                    68:27:e2:50:42:03:fe:21:9c:9b:d3:8b:5a:e3:67:
                    5e:f1:9d:dc:72:16:e4:33:8c:48:dd:6a:76:ed:83:
                    90:e2:cc:7b:cc:50:a6:04:8d:ba:f1:f3:18:05:39:
                    fc:ba:08:80:7f:db:ff:2a:ff:8a:70:11:76:e3:3e:
                    c6:c0:fc:12:ae:65:c6:4d:b6:f5:7b:49:ea:2f:42:
                    df:f8:42:ea:26:ce:e0:24:a6:5d:c4:49:ff:ab:94:
                    98:c1:4b:46:7d:b2:de:36:31:fd:2d:37:01:38:af:
                    5f:b4:7e:43:40:e9:b7:9e:65:99:a7:d9:32:c6:1f:
                    4e:fe:48:ab:d9:a7:11:93:d5:7a:56:bf:10:b9:70:
                    a8:05:20:47:3f:5b:66:3e:65:b0:0f:a8:94:33:7b:
                    31:84:7c:7c:a8:89:54:44:35:5a:1a:57:d3:ec:5f:
                    c2:8e:de:64:0b:0b:9f:f7:fb:b8:31:61:31:18:88:
                    22:c6:90:96:ac:96:01:4a:3b:0d:26:28:8c:40:19:
                    58:5b:9d:f7:48:ce:8a:95:6b:15
                Exponent: 65537 (0x10001)
        X509v3 extensions:
            X509v3 Subject Key Identifier: 
                2E:5B:BD:AE:58:B0:F5:47:0F:F0:46:45:E2:D6:B2:5E:B5:3B:90:38
            X509v3 Authority Key Identifier: 
                keyid:B4:D9:8D:B2:38:8A:34:F4:CC:BB:57:97:2C:C5:AD:56:03:68:37:86

            X509v3 Basic Constraints: critical
                CA:TRUE
            X509v3 Key Usage: critical
                Digital Signature, Certificate Sign, CRL Sign
            Authority Information Access: 
                CA Issuers - URI:https://example.com/certs

            X509v3 CRL Distribution Points: 

                Full Name:
                  URI:https://example.com/crl

    Signature Algorithm: sha384WithRSAEncryption
         61:32:47:4e:5f:da:d6:3e:55:da:3c:cc:3a:8b:2f:8e:35:1e:
         f7:95:e5:ff:30:86:26:07:05:88:68:bc:da:b9:5b:91:f0:12:
         12:fe:44:d9:15:3c:ff:07:a5:4d:20:a3:87:d7:c6:46:63:57:
         da:17:46:6e:95:b1:70:2d:5b:c5:e1:45:34:48:49:95:16:8a:
         b1:da:e3:da:31:71:96:23:aa:f2:8f:f1:6f:6b:0d:10:b7:b5:
         76:c2:ae:8c:02:6d:a8:64:c9:47:10:bb:ec:26:5a:b0:7b:87:
         d3:61:e3:97:1f:48:f1:c0:f5:43:70:1e:2e:1e:ad:bc:9e:21:
         7f:a2:c0:2a:18:af:f9:de:c4:a3:61:e6:2c:a6:91:95:1e:b7:
         ab:e4:7f:c3:ed:e4:ec:22:ad:15:19:56:08:4d:ce:46:81:ce:
         4a:90:64:88:3e:d0:f2:0a:71:02:a6:9f:1f:fb:74:df:40:a3:
         83:30:60:25:4b:75:7b:cc:28:8e:0e:07:fc:39:bc:a0:5c:5a:
         b9:8c:c4:4b:8d:22:04:89:47:ce:8f:c5:c8:41:21:dd:b0:6e:
         24:78:10:62:57:b7:42:c2:c8:b7:2f:b7:1e:81:c5:e5:1d:6a:
         a6:bd:5a:2f:f9:27:92:1a:c5:09:f2:b1:f6:5b:08:54:01:38:
         6d:6f:8d:06:3e:8d:df:96:78:a2:da:59:ab:9b:05:b9:86:22:
         3d:98:f2:7f:54:92:ed:db:d4:1d:7c:2c:da:62:8d:ea:72:44:
         84:8e:cb:2a:4c:ed:b3:fe:a5:dc:89:66:a6:fa:f8:4f:ea:32:
         5d:ba:a0:e4:42:b6:3a:a8:a9:15:8c:8d:23:66:ad:72:ea:52:
         e8:5f:c5:4c:a1:1c:26:43:69:f7:95:56:0a:e8:6b:2d:30:34:
         97:da:da:30:02:83:8f:d5:a1:a8:0b:d0:37:05:15:8c:16:0e:
         b5:e5:8e:63:76:59:e9:bd:bc:36:b5:03:1e:aa:f6:92:65:87:
         79:10:ff:46:50:c7
-----BEGIN CERTIFICATE-----
MIIFKzCCA5OgAwIBAgIBCDANBgkqhkiG9w0BAQwFADBxMQswCQYDVQQGEwJVUzEL
MAkGA1UECAwCT1IxEjAQBgNVBAcMCUJlYXZlcnRvbjESMBAGA1UECgwJQ09NUF9P
RU0xMS0wKwYDVQQDDCRDT01QX09FTTEgcnNhIDNrIHNoYTM4NCB0ZXN0IHJvb3Qg
Y2EwHhcNMjMxMTE1MTM1MDM5WhcNMzMxMTEyMTM1MDM5WjB5MQswCQYDVQQGEwJV
UzELMAkGA1UECAwCT1IxEjAQBgNVBAcMCUJlYXZlcnRvbjESMBAGA1UECgwJQ09N
UF9PRU0xMTUwMwYDVQQDDCxDT01QX09FTTEgcnNhIDNrIHNoYTM4NCB0ZXN0IGlu
dGVybWVkaWF0ZSBjYTCCAaIwDQYJKoZIhvcNAQEBBQADggGPADCCAYoCggGBAJqi
MMtn9UF+chltwkzctjp4FrH89+plBnvOsV8b1n0afjRp2KiqYOB/5HYBRbqE6F75
ujA+qetWcilHMvjGoFu73j9p3LAAJN2PxevQjg5HJWXCw37SU/F433RnjfOTA05Z
CVGGjubitNB43Ch6ZabhCePMG/u8DBGzyF+RI4WwDqYZsUx+f+lSiPyxIjEqCioU
qeSw+K2+cc62TAvy3JP/0a2A83K1Qfo6nfrqF3emwGRQaCfiUEID/iGcm9OLWuNn
XvGd3HIW5DOMSN1qdu2DkOLMe8xQpgSNuvHzGAU5/LoIgH/b/yr/inARduM+xsD8
Eq5lxk229XtJ6i9C3/hC6ibO4CSmXcRJ/6uUmMFLRn2y3jYx/S03ATivX7R+Q0Dp
t55lmafZMsYfTv5Iq9mnEZPVela/ELlwqAUgRz9bZj5lsA+olDN7MYR8fKiJVEQ1
WhpX0+xfwo7eZAsLn/f7uDFhMRiIIsaQlqyWAUo7DSYojEAZWFud90jOipVrFQID
AQABo4HFMIHCMB0GA1UdDgQWBBQuW72uWLD1Rw/wRkXi1rJetTuQODAfBgNVHSME
GDAWgBS02Y2yOIo09My7V5csxa1WA2g3hjAPBgNVHRMBAf8EBTADAQH/MA4GA1Ud
DwEB/wQEAwIBhjA1BggrBgEFBQcBAQQpMCcwJQYIKwYBBQUHMAKGGWh0dHBzOi8v
ZXhhbXBsZS5jb20vY2VydHMwKAYDVR0fBCEwHzAdoBugGYYXaHR0cHM6Ly9leGFt
cGxlLmNvbS9jcmwwDQYJKoZIhvcNAQEMBQADggGBAGEyR05f2tY+Vdo8zDqLL441
HveV5f8whiYHBYhovNq5W5HwEhL+RNkVPP8HpU0go4fXxkZjV9oXRm6VsXAtW8Xh
RTRISZUWirHa49oxcZYjqvKP8W9rDRC3tXbCrowCbahkyUcQu+wmWrB7h9Nh45cf
SPHA9UNwHi4erbyeIX+iwCoYr/nexKNh5iymkZUet6vkf8Pt5OwirRUZVghNzkaB
zkqQZIg+0PIKcQKmnx/7dN9Ao4MwYCVLdXvMKI4OB/w5vKBcWrmMxEuNIgSJR86P
xchBId2wbiR4EGJXt0LCyLcvtx6BxeUdaqa9Wi/5J5IaxQnysfZbCFQBOG1vjQY+
jd+WeKLaWaubBbmGIj2Y8n9Uku3b1B18LNpijepyRISOyypM7bP+pdyJZqb6+E/q
Ml26oORCtjqoqRWMjSNmrXLqUuhfxUyhHCZDafeVVgroay0wNJfa2jACg4/VoagL
0DcFFYwWDrXljmN2Wem9vDa1Ax6q9pJlh3kQ/0ZQxw==
-----END CERTIFICATE-----
-----BEGIN CERTIFICATE-----
MIIFNjCCA56gAwIBAgIUdKjdmaud38M5wf3tadpKfc0xUSIwDQYJKoZIhvcNAQEL
BQAwcTELMAkGA1UEBhMCVVMxCzAJBgNVBAgMAk9SMRIwEAYDVQQHDAlCZWF2ZXJ0
b24xEjAQBgNVBAoMCUNPTVBfT0VNMTEtMCsGA1UEAwwkQ09NUF9PRU0xIHJzYSAz
ayBzaGEzODQgdGVzdCByb290IGNhMB4XDTIzMTExNTEzNTAzOFoXDTMzMTExMjEz
NTAzOFowcTELMAkGA1UEBhMCVVMxCzAJBgNVBAgMAk9SMRIwEAYDVQQHDAlCZWF2
ZXJ0b24xEjAQBgNVBAoMCUNPTVBfT0VNMTEtMCsGA1UEAwwkQ09NUF9PRU0xIHJz
YSAzayBzaGEzODQgdGVzdCByb290IGNhMIIBojANBgkqhkiG9w0BAQEFAAOCAY8A
MIIBigKCAYEAubfD6hstD6rR7ucY9t6AyTXMEcgIMVDG/swy7bkOAjE55aLdTOmv
BBOOVQM9RbM1RVpFLIVuuL98mMPGju1wF9THpQHnExa6lrxRuUWe//szzZSmEtX9
X6pqHcdFcCiLJJNkqlE7wGMO/hdc7G1QOOsllqH3kB7/rx96EeA/aBPPWSE6B45J
k+0iEPEQqltEl/MnYr0IxRJ3Pj0Cag7b00pGflYysjQ+MJJcKtVAljY5ZYvSYcHv
zjv79rlsyb8FOeNVf5G7uFD3uVrO8wfTIgmNXhRoZyHPofYLhoQNHq4X7II0r5xY
sHNNT7atDCPSnWGG/DM7RiJx3Eo72atEyyPvcnPhFnmI7gsvhzTmXRQdt6PFhzSp
SkCUHnZyMsNTfZ6pENEXQixpYQ2Le60R0/gyEnd8pwTlUbIVjlmNwRnBVuJ5aRrz
Rr/P8IvaZnfhJ2D6CgyMu+pSuL5hReFjGOLYdeUFlLjNgDJ6NDx4t3ZrOcqmZfXl
yt0LNqQHYiJHAgMBAAGjgcUwgcIwHQYDVR0OBBYEFLTZjbI4ijT0zLtXlyzFrVYD
aDeGMB8GA1UdIwQYMBaAFLTZjbI4ijT0zLtXlyzFrVYDaDeGMA8GA1UdEwEB/wQF
MAMBAf8wDgYDVR0PAQH/BAQDAgGGMDUGCCsGAQUFBwEBBCkwJzAlBggrBgEFBQcw
AoYZaHR0cHM6Ly9leGFtcGxlLmNvbS9jZXJ0czAoBgNVHR8EITAfMB2gG6AZhhdo
dHRwczovL2V4YW1wbGUuY29tL2NybDANBgkqhkiG9w0BAQsFAAOCAYEAddkaKGev
SF/pHWs6jeEPfhAYVurR7udXoKOFcpYxKjJbFKlOMAjyjElNAPJvr8YzGmZtjUts
BH0cFcFMlk0QN669EbQd8gS0wVW80Cn70MLHJw8eNXkmFIeBBdb4pbcY0OyZTQc3
eJoOvHRRLRFX+a39ekrxfdNzIaphEQM6jY5lxBRRi9AEt08dQjKmIo5cfgTlFqTp
zAapmF54HK5DWY/VS3vYl4iPBZa/OPhZRGeIsfnn55PKsPu6/kPZOE60idoSTVAy
YSRi4zia8OrzBfeYuY7VV1yZ+8amWBr86FzvN0/lhFv98evRWa/TXWFqn3jmvde3
X/sLlBPlp8+tjsOlBaKh5tSaVSrtu8VJKyugPqScBdGpzJPNDXvL7/8riHO5JNQs
Qv/TEB2iWV7YjfE5rVX4oVUWA9A2+OGNvraOcgCGqPpwpIvd2NNlbEDba00sbPxy
mSiqW2g9qhIaUCO2VtwcPOSGU41KYM+L2+HvdCPUacmpZyKrN//7ZYDd
-----END CERTIFICATE-----
